; Function Attrs: nofree nounwind uwtable
define void @Acb_GenerateFilePatch(ptr noundef readonly captures(none) %0, ptr noundef readonly captures(none) %1) local_unnamed_addr #13 {
  %3 = tail call noalias ptr @fopen(ptr noundef %1, ptr noundef nonnull @.str.17)
  %.not = icmp eq ptr %3, null
  br i1 %.not, label %7, label %4

4:                                                ; preds = %2
  %5 = getelementptr i8, ptr %0, i64 8
  %.val = load ptr, ptr %5, align 8
  %fputs = tail call i32 @fputs(ptr %.val, ptr nonnull %3)
  %6 = tail call i32 @fclose(ptr noundef nonnull %3)
  br label %7

7:                                                ; preds = %2, %4
  ret void
}